; Function Attrs: mustprogress nounwind uwtable
define hidden void @_ZN14ShenandoahHeap12set_gc_stateEjb(ptr noundef nonnull align 8 dereferenceable(2657) %0, i32 noundef %1, i1 noundef zeroext %2) local_unnamed_addr #1 align 2 {
  %4 = trunc i32 %1 to i8
  br i1 %2, label %5, label %16

5:                                                ; preds = %3
  %6 = getelementptr inbounds i8, ptr %0, i64 769
  %sext.i.i = shl i32 %1, 24
  %7 = ashr exact i32 %sext.i.i, 24
  br label %8

8:                                                ; preds = %12, %5
  %9 = load volatile i8, ptr %6, align 1
  tail call void asm sideeffect "", "~{memory},~{dirflag},~{fpsr},~{flags}"() #26, !srcloc !14
  %10 = sext i8 %9 to i32
  %11 = and i32 %7, %10
  %.not.i.i = icmp eq i32 %11, 0
  br i1 %.not.i.i, label %12, label %_ZN22ShenandoahSharedBitmap8set_condEjb.exit

12:                                               ; preds = %8
  %13 = or i8 %9, %4
  %14 = tail call noundef i8 asm sideeffect "lock cmpxchgb $1,($3)", "={ax},q,{ax},r,~{cc},~{memory},~{dirflag},~{fpsr},~{flags}"(i8 %13, i8 %9, ptr nonnull %6) #26, !srcloc !20
  %15 = icmp eq i8 %14, %9
  br i1 %15, label %_ZN22ShenandoahSharedBitmap8set_condEjb.exit, label %8, !llvm.loop !48

16:                                               ; preds = %3
  %17 = xor i8 %4, -1
  %18 = getelementptr inbounds i8, ptr %0, i64 769
  %sext.i3.i = shl i32 %1, 24
  %19 = ashr exact i32 %sext.i3.i, 24
  br label %20

20:                                               ; preds = %25, %16
  %21 = load volatile i8, ptr %18, align 1
  tail call void asm sideeffect "", "~{memory},~{dirflag},~{fpsr},~{flags}"() #26, !srcloc !14
  %22 = sext i8 %21 to i32
  %23 = and i32 %19, %22
  %24 = icmp eq i32 %23, 0
  br i1 %24, label %_ZN22ShenandoahSharedBitmap8set_condEjb.exit, label %25

25:                                               ; preds = %20
  %26 = and i8 %21, %17
  %27 = tail call noundef i8 asm sideeffect "lock cmpxchgb $1,($3)", "={ax},q,{ax},r,~{cc},~{memory},~{dirflag},~{fpsr},~{flags}"(i8 %26, i8 %21, ptr nonnull %18) #26, !srcloc !20
  %28 = icmp eq i8 %27, %21
  br i1 %28, label %_ZN22ShenandoahSharedBitmap8set_condEjb.exit, label %20, !llvm.loop !49

_ZN22ShenandoahSharedBitmap8set_condEjb.exit:     ; preds = %20, %25, %8, %12
  %29 = getelementptr inbounds i8, ptr %0, i64 704
  store i8 1, ptr %29, align 8
  ret void
}